target datalayout = "e-m:e-p270:32:32-p271:32:32-p272:64:64-i64:64-i128:128-f80:128-n8:16:32:64-S128"
target triple = "x86_64-pc-linux-gnu"

%struct.config_s = type { i16, i16, i16, i16, ptr }
%struct.z_stream_s = type { ptr, i32, i64, ptr, i32, i64, ptr, ptr, ptr, ptr, ptr, i32, i64, i64 }
%struct.internal_state = type { ptr, i32, ptr, i64, ptr, i32, i32, ptr, i32, i8, i32, i32, i32, i32, ptr, i64, ptr, ptr, i32, i32, i32, i32, i32, i64, i32, i32, i32, i32, i32, i32, i32, i32, i32, i32, i32, i32, i32, [573 x %struct.ct_data_s], [61 x %struct.ct_data_s], [39 x %struct.ct_data_s], %struct.tree_desc_s, %struct.tree_desc_s, %struct.tree_desc_s, [16 x i16], [573 x i32], i32, i32, [573 x i8], ptr, i32, i32, ptr, i64, i64, i32, i32, i16, i32, i64 }
%struct.ct_data_s = type { %union.anon, %union.anon.0 }
%union.anon = type { i16 }
%union.anon.0 = type { i16 }
%struct.tree_desc_s = type { ptr, i32, ptr }

; Function Attrs: nounwind uwtable
define internal void @lm_init(ptr noundef %0) #0 {
  %2 = alloca ptr, align 8
  store ptr %0, ptr %2, align 8, !tbaa !20
  %3 = load ptr, ptr %2, align 8, !tbaa !20
  %4 = getelementptr inbounds nuw %struct.internal_state, ptr %3, i32 0, i32 11
  %5 = load i32, ptr %4, align 4, !tbaa !33
  %6 = zext i32 %5 to i64
  %7 = mul i64 2, %6
  %8 = load ptr, ptr %2, align 8, !tbaa !20
  %9 = getelementptr inbounds nuw %struct.internal_state, ptr %8, i32 0, i32 15
  store i64 %7, ptr %9, align 8, !tbaa !68
  %10 = load ptr, ptr %2, align 8, !tbaa !20
  %11 = getelementptr inbounds nuw %struct.internal_state, ptr %10, i32 0, i32 17
  %12 = load ptr, ptr %11, align 8, !tbaa !41
  %13 = load ptr, ptr %2, align 8, !tbaa !20
  %14 = getelementptr inbounds nuw %struct.internal_state, ptr %13, i32 0, i32 19
  %15 = load i32, ptr %14, align 4, !tbaa !36
  %16 = sub i32 %15, 1
  %17 = zext i32 %16 to i64
  %18 = getelementptr inbounds nuw i16, ptr %12, i64 %17
  store i16 0, ptr %18, align 2, !tbaa !55
  %19 = load ptr, ptr %2, align 8, !tbaa !20
  %20 = getelementptr inbounds nuw %struct.internal_state, ptr %19, i32 0, i32 17
  %21 = load ptr, ptr %20, align 8, !tbaa !41
  %22 = load ptr, ptr %2, align 8, !tbaa !20
  %23 = getelementptr inbounds nuw %struct.internal_state, ptr %22, i32 0, i32 19
  %24 = load i32, ptr %23, align 4, !tbaa !36
  %25 = sub i32 %24, 1
  %26 = zext i32 %25 to i64
  %27 = mul i64 %26, 2
  call void @llvm.memset.p0.i64(ptr align 1 %21, i8 0, i64 %27, i1 false)
  %28 = load ptr, ptr %2, align 8, !tbaa !20
  %29 = getelementptr inbounds nuw %struct.internal_state, ptr %28, i32 0, i32 33
  %30 = load i32, ptr %29, align 4, !tbaa !50
  %31 = sext i32 %30 to i64
  %32 = getelementptr inbounds [10 x %struct.config_s], ptr @configuration_table, i64 0, i64 %31
  %33 = getelementptr inbounds nuw %struct.config_s, ptr %32, i32 0, i32 1
  %34 = load i16, ptr %33, align 2, !tbaa !81
  %35 = zext i16 %34 to i32
  %36 = load ptr, ptr %2, align 8, !tbaa !20
  %37 = getelementptr inbounds nuw %struct.internal_state, ptr %36, i32 0, i32 32
  store i32 %35, ptr %37, align 8, !tbaa !83
  %38 = load ptr, ptr %2, align 8, !tbaa !20
  %39 = getelementptr inbounds nuw %struct.internal_state, ptr %38, i32 0, i32 33
  %40 = load i32, ptr %39, align 4, !tbaa !50
  %41 = sext i32 %40 to i64
  %42 = getelementptr inbounds [10 x %struct.config_s], ptr @configuration_table, i64 0, i64 %41
  %43 = getelementptr inbounds nuw %struct.config_s, ptr %42, i32 0, i32 0
  %44 = load i16, ptr %43, align 16, !tbaa !84
  %45 = zext i16 %44 to i32
  %46 = load ptr, ptr %2, align 8, !tbaa !20
  %47 = getelementptr inbounds nuw %struct.internal_state, ptr %46, i32 0, i32 35
  store i32 %45, ptr %47, align 4, !tbaa !85
  %48 = load ptr, ptr %2, align 8, !tbaa !20
  %49 = getelementptr inbounds nuw %struct.internal_state, ptr %48, i32 0, i32 33
  %50 = load i32, ptr %49, align 4, !tbaa !50
  %51 = sext i32 %50 to i64
  %52 = getelementptr inbounds [10 x %struct.config_s], ptr @configuration_table, i64 0, i64 %51
  %53 = getelementptr inbounds nuw %struct.config_s, ptr %52, i32 0, i32 2
  %54 = load i16, ptr %53, align 4, !tbaa !86
  %55 = zext i16 %54 to i32
  %56 = load ptr, ptr %2, align 8, !tbaa !20
  %57 = getelementptr inbounds nuw %struct.internal_state, ptr %56, i32 0, i32 36
  store i32 %55, ptr %57, align 8, !tbaa !87
  %58 = load ptr, ptr %2, align 8, !tbaa !20
  %59 = getelementptr inbounds nuw %struct.internal_state, ptr %58, i32 0, i32 33
  %60 = load i32, ptr %59, align 4, !tbaa !50
  %61 = sext i32 %60 to i64
  %62 = getelementptr inbounds [10 x %struct.config_s], ptr @configuration_table, i64 0, i64 %61
  %63 = getelementptr inbounds nuw %struct.config_s, ptr %62, i32 0, i32 3
  %64 = load i16, ptr %63, align 2, !tbaa !88
  %65 = zext i16 %64 to i32
  %66 = load ptr, ptr %2, align 8, !tbaa !20
  %67 = getelementptr inbounds nuw %struct.internal_state, ptr %66, i32 0, i32 31
  store i32 %65, ptr %67, align 4, !tbaa !89
  %68 = load ptr, ptr %2, align 8, !tbaa !20
  %69 = getelementptr inbounds nuw %struct.internal_state, ptr %68, i32 0, i32 27
  store i32 0, ptr %69, align 4, !tbaa !56
  %70 = load ptr, ptr %2, align 8, !tbaa !20
  %71 = getelementptr inbounds nuw %struct.internal_state, ptr %70, i32 0, i32 23
  store i64 0, ptr %71, align 8, !tbaa !57
  %72 = load ptr, ptr %2, align 8, !tbaa !20
  %73 = getelementptr inbounds nuw %struct.internal_state, ptr %72, i32 0, i32 29
  store i32 0, ptr %73, align 4, !tbaa !53
  %74 = load ptr, ptr %2, align 8, !tbaa !20
  %75 = getelementptr inbounds nuw %struct.internal_state, ptr %74, i32 0, i32 55
  store i32 0, ptr %75, align 4, !tbaa !58
  %76 = load ptr, ptr %2, align 8, !tbaa !20
  %77 = getelementptr inbounds nuw %struct.internal_state, ptr %76, i32 0, i32 30
  store i32 2, ptr %77, align 8, !tbaa !65
  %78 = load ptr, ptr %2, align 8, !tbaa !20
  %79 = getelementptr inbounds nuw %struct.internal_state, ptr %78, i32 0, i32 24
  store i32 2, ptr %79, align 8, !tbaa !66
  %80 = load ptr, ptr %2, align 8, !tbaa !20
  %81 = getelementptr inbounds nuw %struct.internal_state, ptr %80, i32 0, i32 26
  store i32 0, ptr %81, align 8, !tbaa !67
  %82 = load ptr, ptr %2, align 8, !tbaa !20
  %83 = getelementptr inbounds nuw %struct.internal_state, ptr %82, i32 0, i32 18
  store i32 0, ptr %83, align 8, !tbaa !61
  ret void
}

; Function Attrs: nounwind uwtable
define i32 @deflateResetKeep(ptr noundef %0) #0 {
  %2 = alloca i32, align 4
  %3 = alloca ptr, align 8
  %4 = alloca ptr, align 8
  %5 = alloca i32, align 4
  store ptr %0, ptr %3, align 8, !tbaa !3
  call void @llvm.lifetime.start.p0(i64 8, ptr %4) #5
  %6 = load ptr, ptr %3, align 8, !tbaa !3
  %7 = icmp eq ptr %6, null
  br i1 %7, label %23, label %8

8:                                                ; preds = %1
  %9 = load ptr, ptr %3, align 8, !tbaa !3
  %10 = getelementptr inbounds nuw %struct.z_stream_s, ptr %9, i32 0, i32 7
  %11 = load ptr, ptr %10, align 8, !tbaa !21
  %12 = icmp eq ptr %11, null
  br i1 %12, label %23, label %13

13:                                               ; preds = %8
  %14 = load ptr, ptr %3, align 8, !tbaa !3
  %15 = getelementptr inbounds nuw %struct.z_stream_s, ptr %14, i32 0, i32 8
  %16 = load ptr, ptr %15, align 8, !tbaa !17
  %17 = icmp eq ptr %16, null
  br i1 %17, label %23, label %18

18:                                               ; preds = %13
  %19 = load ptr, ptr %3, align 8, !tbaa !3
  %20 = getelementptr inbounds nuw %struct.z_stream_s, ptr %19, i32 0, i32 9
  %21 = load ptr, ptr %20, align 8, !tbaa !19
  %22 = icmp eq ptr %21, null
  br i1 %22, label %23, label %24

23:                                               ; preds = %18, %13, %8, %1
  store i32 -2, ptr %2, align 4
  store i32 1, ptr %5, align 4
  br label %77

24:                                               ; preds = %18
  %25 = load ptr, ptr %3, align 8, !tbaa !3
  %26 = getelementptr inbounds nuw %struct.z_stream_s, ptr %25, i32 0, i32 5
  store i64 0, ptr %26, align 8, !tbaa !75
  %27 = load ptr, ptr %3, align 8, !tbaa !3
  %28 = getelementptr inbounds nuw %struct.z_stream_s, ptr %27, i32 0, i32 2
  store i64 0, ptr %28, align 8, !tbaa !76
  %29 = load ptr, ptr %3, align 8, !tbaa !3
  %30 = getelementptr inbounds nuw %struct.z_stream_s, ptr %29, i32 0, i32 6
  store ptr null, ptr %30, align 8, !tbaa !13
  %31 = load ptr, ptr %3, align 8, !tbaa !3
  %32 = getelementptr inbounds nuw %struct.z_stream_s, ptr %31, i32 0, i32 11
  store i32 2, ptr %32, align 8, !tbaa !77
  %33 = load ptr, ptr %3, align 8, !tbaa !3
  %34 = getelementptr inbounds nuw %struct.z_stream_s, ptr %33, i32 0, i32 7
  %35 = load ptr, ptr %34, align 8, !tbaa !21
  store ptr %35, ptr %4, align 8, !tbaa !20
  %36 = load ptr, ptr %4, align 8, !tbaa !20
  %37 = getelementptr inbounds nuw %struct.internal_state, ptr %36, i32 0, i32 5
  store i32 0, ptr %37, align 8, !tbaa !78
  %38 = load ptr, ptr %4, align 8, !tbaa !20
  %39 = getelementptr inbounds nuw %struct.internal_state, ptr %38, i32 0, i32 2
  %40 = load ptr, ptr %39, align 8, !tbaa !45
  %41 = load ptr, ptr %4, align 8, !tbaa !20
  %42 = getelementptr inbounds nuw %struct.internal_state, ptr %41, i32 0, i32 4
  store ptr %40, ptr %42, align 8, !tbaa !79
  %43 = load ptr, ptr %4, align 8, !tbaa !20
  %44 = getelementptr inbounds nuw %struct.internal_state, ptr %43, i32 0, i32 6
  %45 = load i32, ptr %44, align 4, !tbaa !30
  %46 = icmp slt i32 %45, 0
  br i1 %46, label %47, label %54

47:                                               ; preds = %24
  %48 = load ptr, ptr %4, align 8, !tbaa !20
  %49 = getelementptr inbounds nuw %struct.internal_state, ptr %48, i32 0, i32 6
  %50 = load i32, ptr %49, align 4, !tbaa !30
  %51 = sub nsw i32 0, %50
  %52 = load ptr, ptr %4, align 8, !tbaa !20
  %53 = getelementptr inbounds nuw %struct.internal_state, ptr %52, i32 0, i32 6
  store i32 %51, ptr %53, align 4, !tbaa !30
  br label %54

54:                                               ; preds = %47, %24
  %55 = load ptr, ptr %4, align 8, !tbaa !20
  %56 = getelementptr inbounds nuw %struct.internal_state, ptr %55, i32 0, i32 6
  %57 = load i32, ptr %56, align 4, !tbaa !30
  %58 = icmp ne i32 %57, 0
  %59 = select i1 %58, i32 42, i32 113
  %60 = load ptr, ptr %4, align 8, !tbaa !20
  %61 = getelementptr inbounds nuw %struct.internal_state, ptr %60, i32 0, i32 1
  store i32 %59, ptr %61, align 8, !tbaa !47
  %62 = load ptr, ptr %4, align 8, !tbaa !20
  %63 = getelementptr inbounds nuw %struct.internal_state, ptr %62, i32 0, i32 6
  %64 = load i32, ptr %63, align 4, !tbaa !30
  %65 = icmp eq i32 %64, 2
  br i1 %65, label %66, label %68

66:                                               ; preds = %54
  %67 = call i64 @crc32(i64 noundef 0, ptr noundef null, i32 noundef 0)
  br label %70

68:                                               ; preds = %54
  %69 = call i64 @adler32(i64 noundef 0, ptr noundef null, i32 noundef 0)
  br label %70

70:                                               ; preds = %68, %66
  %71 = phi i64 [ %67, %66 ], [ %69, %68 ]
  %72 = load ptr, ptr %3, align 8, !tbaa !3
  %73 = getelementptr inbounds nuw %struct.z_stream_s, ptr %72, i32 0, i32 12
  store i64 %71, ptr %73, align 8, !tbaa !54
  %74 = load ptr, ptr %4, align 8, !tbaa !20
  %75 = getelementptr inbounds nuw %struct.internal_state, ptr %74, i32 0, i32 10
  store i32 0, ptr %75, align 8, !tbaa !80
  %76 = load ptr, ptr %4, align 8, !tbaa !20
  call void @_tr_init(ptr noundef %76)
  store i32 0, ptr %2, align 4
  store i32 1, ptr %5, align 4
  br label %77

77:                                               ; preds = %70, %23
  call void @llvm.lifetime.end.p0(i64 8, ptr %4) #5
  %78 = load i32, ptr %2, align 4
  ret i32 %78
}

; Function Attrs: nounwind uwtable
define i32 @deflateReset(ptr noundef %0) #0 {
  %2 = alloca ptr, align 8
  %3 = alloca i32, align 4
  store ptr %0, ptr %2, align 8, !tbaa !3
  call void @llvm.lifetime.start.p0(i64 4, ptr %3) #5
  %4 = load ptr, ptr %2, align 8, !tbaa !3
  %5 = call i32 @deflateResetKeep(ptr noundef %4)
  store i32 %5, ptr %3, align 4, !tbaa !8
  %6 = load i32, ptr %3, align 4, !tbaa !8
  %7 = icmp eq i32 %6, 0
  br i1 %7, label %8, label %12

8:                                                ; preds = %1
  %9 = load ptr, ptr %2, align 8, !tbaa !3
  %10 = getelementptr inbounds nuw %struct.z_stream_s, ptr %9, i32 0, i32 7
  %11 = load ptr, ptr %10, align 8, !tbaa !21
  call void @lm_init(ptr noundef %11)
  br label %12

12:                                               ; preds = %8, %1
  %13 = load i32, ptr %3, align 4, !tbaa !8
  call void @llvm.lifetime.end.p0(i64 4, ptr %3) #5
  ret i32 %13
}