; Function Attrs: nounwind uwtable
define range(i32 -2, 1) i32 @deflateReset(ptr noundef %0) local_unnamed_addr #0 {
  %2 = icmp eq ptr %0, null
  br i1 %2, label %deflateResetKeep.exit.thread, label %3

3:                                                ; preds = %1
  %4 = getelementptr inbounds nuw i8, ptr %0, i64 56
  %5 = load ptr, ptr %4, align 8, !tbaa !16
  %6 = icmp eq ptr %5, null
  br i1 %6, label %deflateResetKeep.exit.thread, label %7

7:                                                ; preds = %3
  %8 = getelementptr inbounds nuw i8, ptr %0, i64 64
  %9 = load ptr, ptr %8, align 8, !tbaa !13
  %10 = icmp eq ptr %9, null
  br i1 %10, label %deflateResetKeep.exit.thread, label %11

11:                                               ; preds = %7
  %12 = getelementptr inbounds nuw i8, ptr %0, i64 72
  %13 = load ptr, ptr %12, align 8, !tbaa !15
  %14 = icmp eq ptr %13, null
  br i1 %14, label %deflateResetKeep.exit.thread, label %15

15:                                               ; preds = %11
  %16 = getelementptr inbounds nuw i8, ptr %0, i64 40
  %17 = getelementptr inbounds nuw i8, ptr %0, i64 16
  store i64 0, ptr %17, align 8, !tbaa !49
  %18 = getelementptr inbounds nuw i8, ptr %0, i64 88
  tail call void @llvm.memset.p0.i64(ptr noundef nonnull align 8 dereferenceable(16) %16, i8 0, i64 16, i1 false)
  store i32 2, ptr %18, align 8, !tbaa !50
  %19 = getelementptr inbounds nuw i8, ptr %5, i64 40
  store i32 0, ptr %19, align 8, !tbaa !51
  %20 = getelementptr inbounds nuw i8, ptr %5, i64 16
  %21 = load ptr, ptr %20, align 8, !tbaa !40
  %22 = getelementptr inbounds nuw i8, ptr %5, i64 32
  store ptr %21, ptr %22, align 8, !tbaa !52
  %23 = getelementptr inbounds nuw i8, ptr %5, i64 44
  %24 = load i32, ptr %23, align 4, !tbaa !26
  %25 = icmp slt i32 %24, 0
  br i1 %25, label %26, label %28

26:                                               ; preds = %15
  %27 = sub nsw i32 0, %24
  store i32 %27, ptr %23, align 4, !tbaa !26
  br label %28

28:                                               ; preds = %26, %15
  %29 = phi i32 [ %27, %26 ], [ %24, %15 ]
  %.not.i = icmp eq i32 %29, 0
  %30 = select i1 %.not.i, i32 113, i32 42
  %31 = getelementptr inbounds nuw i8, ptr %5, i64 8
  store i32 %30, ptr %31, align 8, !tbaa !42
  %32 = icmp eq i32 %29, 2
  br i1 %32, label %33, label %35

33:                                               ; preds = %28
  %34 = tail call i64 @crc32(i64 noundef 0, ptr noundef null, i32 noundef 0) #10
  br label %37

35:                                               ; preds = %28
  %36 = tail call i64 @adler32(i64 noundef 0, ptr noundef null, i32 noundef 0) #10
  br label %37

37:                                               ; preds = %35, %33
  %38 = phi i64 [ %34, %33 ], [ %36, %35 ]
  %39 = getelementptr inbounds nuw i8, ptr %0, i64 96
  store i64 %38, ptr %39, align 8, !tbaa !53
  %40 = getelementptr inbounds nuw i8, ptr %5, i64 64
  store i32 0, ptr %40, align 8, !tbaa !54
  tail call void @_tr_init(ptr noundef nonnull %5) #10
  %41 = load ptr, ptr %4, align 8, !tbaa !16
  %42 = getelementptr inbounds nuw i8, ptr %41, i64 68
  %43 = load i32, ptr %42, align 4, !tbaa !29
  %44 = zext i32 %43 to i64
  %45 = shl nuw nsw i64 %44, 1
  %46 = getelementptr inbounds nuw i8, ptr %41, i64 88
  store i64 %45, ptr %46, align 8, !tbaa !55
  %47 = getelementptr inbounds nuw i8, ptr %41, i64 104
  %48 = load ptr, ptr %47, align 8, !tbaa !37
  %49 = getelementptr inbounds nuw i8, ptr %41, i64 116
  %50 = load i32, ptr %49, align 4, !tbaa !32
  %51 = add i32 %50, -1
  %52 = zext i32 %51 to i64
  %53 = getelementptr inbounds nuw i16, ptr %48, i64 %52
  store i16 0, ptr %53, align 2, !tbaa !56
  %54 = shl nuw nsw i64 %52, 1
  tail call void @llvm.memset.p0.i64(ptr align 1 %48, i8 0, i64 %54, i1 false)
  %55 = getelementptr inbounds nuw i8, ptr %41, i64 180
  %56 = load i32, ptr %55, align 4, !tbaa !46
  %57 = sext i32 %56 to i64
  %58 = getelementptr inbounds [10 x %struct.config_s], ptr @configuration_table, i64 0, i64 %57, i32 1
  %59 = load i16, ptr %58, align 2, !tbaa !57
  %60 = zext i16 %59 to i32
  %61 = getelementptr inbounds nuw i8, ptr %41, i64 176
  store i32 %60, ptr %61, align 8, !tbaa !59
  %62 = getelementptr inbounds [10 x %struct.config_s], ptr @configuration_table, i64 0, i64 %57
  %63 = load i16, ptr %62, align 16, !tbaa !60
  %64 = zext i16 %63 to i32
  %65 = getelementptr inbounds nuw i8, ptr %41, i64 188
  store i32 %64, ptr %65, align 4, !tbaa !61
  %66 = getelementptr inbounds [10 x %struct.config_s], ptr @configuration_table, i64 0, i64 %57, i32 2
  %67 = load i16, ptr %66, align 4, !tbaa !62
  %68 = zext i16 %67 to i32
  %69 = getelementptr inbounds nuw i8, ptr %41, i64 192
  store i32 %68, ptr %69, align 8, !tbaa !63
  %70 = getelementptr inbounds [10 x %struct.config_s], ptr @configuration_table, i64 0, i64 %57, i32 3
  %71 = load i16, ptr %70, align 2, !tbaa !64
  %72 = zext i16 %71 to i32
  %73 = getelementptr inbounds nuw i8, ptr %41, i64 172
  store i32 %72, ptr %73, align 4, !tbaa !65
  %74 = getelementptr inbounds nuw i8, ptr %41, i64 156
  store i32 0, ptr %74, align 4, !tbaa !66
  %75 = getelementptr inbounds nuw i8, ptr %41, i64 136
  store i64 0, ptr %75, align 8, !tbaa !67
  %76 = getelementptr inbounds nuw i8, ptr %41, i64 164
  store i32 0, ptr %76, align 4, !tbaa !68
  %77 = getelementptr inbounds nuw i8, ptr %41, i64 5916
  store i32 0, ptr %77, align 4, !tbaa !69
  %78 = getelementptr inbounds nuw i8, ptr %41, i64 168
  store i32 2, ptr %78, align 8, !tbaa !70
  %79 = getelementptr inbounds nuw i8, ptr %41, i64 144
  store i32 2, ptr %79, align 8, !tbaa !71
  %80 = getelementptr inbounds nuw i8, ptr %41, i64 152
  store i32 0, ptr %80, align 8, !tbaa !72
  %81 = getelementptr inbounds nuw i8, ptr %41, i64 112
  store i32 0, ptr %81, align 8, !tbaa !73
  br label %deflateResetKeep.exit.thread

deflateResetKeep.exit.thread:                     ; preds = %1, %3, %7, %11, %37
  %.0.i4 = phi i32 [ 0, %37 ], [ -2, %11 ], [ -2, %7 ], [ -2, %3 ], [ -2, %1 ]
  ret i32 %.0.i4
}